target datalayout = "e-m:e-p270:32:32-p271:32:32-p272:64:64-i64:64-i128:128-f80:128-n8:16:32:64-S128"
target triple = "x86_64-pc-linux-gnu"

%"class.datalog::mk_array_eq_rewrite" = type <{ %"class.datalog::rule_transformer::plugin", ptr, ptr, %class.array_util, ptr, ptr, ptr, i32, [4 x i8] }>
%"class.datalog::rule_transformer::plugin" = type { ptr, i32, i8, ptr }
%class.array_util = type { %class.array_recognizers, ptr }
%class.array_recognizers = type { i32 }
%class.ptr_vector.2 = type { %class.vector.3 }
%class.vector.3 = type { ptr }
%class.app = type { %class.expr, ptr, i32, %struct.app_flags, [0 x ptr] }
%class.expr = type { %class.ast }
%class.ast = type { i32, i32, i32, i32 }
%struct.app_flags = type <{ i16, i8, i8 }>

; Function Attrs: mustprogress nounwind uwtable
define linkonce_odr hidden void @_ZN6vectorIP4exprLb0EjEC2Ev(ptr noundef nonnull align 8 dereferenceable(8) %0) unnamed_addr #5 comdat align 2 {
  %2 = alloca ptr, align 8
  store ptr %0, ptr %2, align 8, !tbaa !301
  %3 = load ptr, ptr %2, align 8
  %4 = getelementptr inbounds nuw %class.vector.3, ptr %3, i32 0, i32 0
  store ptr null, ptr %4, align 8, !tbaa !303
  ret void
}

; Function Attrs: mustprogress nounwind uwtable
define linkonce_odr hidden noundef i32 @_ZNK3ast8get_kindEv(ptr noundef nonnull align 4 dereferenceable(16) %0) #5 comdat align 2 {
  %2 = alloca ptr, align 8
  store ptr %0, ptr %2, align 8, !tbaa !275
  %3 = load ptr, ptr %2, align 8
  %4 = getelementptr inbounds nuw %class.ast, ptr %3, i32 0, i32 1
  %5 = load i32, ptr %4, align 4
  %6 = and i32 %5, 65535
  ret i32 %6
}

; Function Attrs: mustprogress nounwind uwtable
define linkonce_odr hidden noundef ptr @_ZNK6vectorIP4exprLb0EjE4dataEv(ptr noundef nonnull align 8 dereferenceable(8) %0) #5 comdat align 2 {
  %2 = alloca ptr, align 8
  store ptr %0, ptr %2, align 8, !tbaa !301
  %3 = load ptr, ptr %2, align 8
  %4 = getelementptr inbounds nuw %class.vector.3, ptr %3, i32 0, i32 0
  %5 = load ptr, ptr %4, align 8, !tbaa !303
  ret ptr %5
}

; Function Attrs: mustprogress nounwind uwtable
define linkonce_odr hidden noundef i32 @_ZNK6vectorIP4exprLb0EjE4sizeEv(ptr noundef nonnull align 8 dereferenceable(8) %0) #5 comdat align 2 {
  %2 = alloca i32, align 4
  %3 = alloca ptr, align 8
  store ptr %0, ptr %3, align 8, !tbaa !301
  %4 = load ptr, ptr %3, align 8
  %5 = getelementptr inbounds nuw %class.vector.3, ptr %4, i32 0, i32 0
  %6 = load ptr, ptr %5, align 8, !tbaa !303
  %7 = icmp eq ptr %6, null
  br i1 %7, label %8, label %9

8:                                                ; preds = %1
  store i32 0, ptr %2, align 4
  br label %14

9:                                                ; preds = %1
  %10 = getelementptr inbounds nuw %class.vector.3, ptr %4, i32 0, i32 0
  %11 = load ptr, ptr %10, align 8, !tbaa !303
  %12 = getelementptr inbounds i32, ptr %11, i64 -1
  %13 = load i32, ptr %12, align 4, !tbaa !10
  store i32 %13, ptr %2, align 4
  br label %14

14:                                               ; preds = %9, %8
  %15 = load i32, ptr %2, align 4
  ret i32 %15
}

; Function Attrs: mustprogress nounwind uwtable
define linkonce_odr hidden noundef ptr @_ZNK3app8get_declEv(ptr noundef nonnull align 8 dereferenceable(32) %0) #5 comdat align 2 {
  %2 = alloca ptr, align 8
  store ptr %0, ptr %2, align 8, !tbaa !257
  %3 = load ptr, ptr %2, align 8
  %4 = getelementptr inbounds nuw %class.app, ptr %3, i32 0, i32 1
  %5 = load ptr, ptr %4, align 8, !tbaa !304
  ret ptr %5
}

; Function Attrs: mustprogress uwtable
define linkonce_odr hidden noundef nonnull align 8 dereferenceable(8) ptr @_ZN6vectorIP4exprLb0EjE9push_backEOS1_(ptr noundef nonnull align 8 dereferenceable(8) %0, ptr noundef nonnull align 8 dereferenceable(8) %1) #4 comdat align 2 {
  %3 = alloca ptr, align 8
  %4 = alloca ptr, align 8
  store ptr %0, ptr %3, align 8, !tbaa !301
  store ptr %1, ptr %4, align 8, !tbaa !248
  %5 = load ptr, ptr %3, align 8
  %6 = getelementptr inbounds nuw %class.vector.3, ptr %5, i32 0, i32 0
  %7 = load ptr, ptr %6, align 8, !tbaa !303
  %8 = icmp eq ptr %7, null
  br i1 %8, label %19, label %9

9:                                                ; preds = %2
  %10 = getelementptr inbounds nuw %class.vector.3, ptr %5, i32 0, i32 0
  %11 = load ptr, ptr %10, align 8, !tbaa !303
  %12 = getelementptr inbounds i32, ptr %11, i64 -1
  %13 = load i32, ptr %12, align 4, !tbaa !10
  %14 = getelementptr inbounds nuw %class.vector.3, ptr %5, i32 0, i32 0
  %15 = load ptr, ptr %14, align 8, !tbaa !303
  %16 = getelementptr inbounds i32, ptr %15, i64 -2
  %17 = load i32, ptr %16, align 4, !tbaa !10
  %18 = icmp eq i32 %13, %17
  br i1 %18, label %19, label %20

19:                                               ; preds = %9, %2
  call void @_ZN6vectorIP4exprLb0EjE13expand_vectorEv(ptr noundef nonnull align 8 dereferenceable(8) %5)
  br label %20

20:                                               ; preds = %19, %9
  %21 = getelementptr inbounds nuw %class.vector.3, ptr %5, i32 0, i32 0
  %22 = load ptr, ptr %21, align 8, !tbaa !303
  %23 = getelementptr inbounds nuw %class.vector.3, ptr %5, i32 0, i32 0
  %24 = load ptr, ptr %23, align 8, !tbaa !303
  %25 = getelementptr inbounds i32, ptr %24, i64 -1
  %26 = load i32, ptr %25, align 4, !tbaa !10
  %27 = zext i32 %26 to i64
  %28 = getelementptr inbounds nuw ptr, ptr %22, i64 %27
  %29 = load ptr, ptr %4, align 8, !tbaa !248
  %30 = load ptr, ptr %29, align 8, !tbaa !239
  store ptr %30, ptr %28, align 8, !tbaa !239
  %31 = getelementptr inbounds nuw %class.vector.3, ptr %5, i32 0, i32 0
  %32 = load ptr, ptr %31, align 8, !tbaa !303
  %33 = getelementptr inbounds i32, ptr %32, i64 -1
  %34 = load i32, ptr %33, align 4, !tbaa !10
  %35 = add i32 %34, 1
  store i32 %35, ptr %33, align 4, !tbaa !10
  ret ptr %5
}

; Function Attrs: mustprogress nounwind uwtable
define linkonce_odr hidden noundef ptr @_ZNK3app3endEv(ptr noundef nonnull align 8 dereferenceable(32) %0) #5 comdat align 2 {
  %2 = alloca ptr, align 8
  store ptr %0, ptr %2, align 8, !tbaa !257
  %3 = load ptr, ptr %2, align 8
  %4 = getelementptr inbounds nuw %class.app, ptr %3, i32 0, i32 4
  %5 = getelementptr inbounds [0 x ptr], ptr %4, i64 0, i64 0
  %6 = getelementptr inbounds nuw %class.app, ptr %3, i32 0, i32 2
  %7 = load i32, ptr %6, align 8, !tbaa !296
  %8 = zext i32 %7 to i64
  %9 = getelementptr inbounds nuw ptr, ptr %5, i64 %8
  ret ptr %9
}

; Function Attrs: mustprogress nounwind uwtable
define linkonce_odr hidden noundef ptr @_ZNK3app5beginEv(ptr noundef nonnull align 8 dereferenceable(32) %0) #5 comdat align 2 {
  %2 = alloca ptr, align 8
  store ptr %0, ptr %2, align 8, !tbaa !257
  %3 = load ptr, ptr %2, align 8
  %4 = getelementptr inbounds nuw %class.app, ptr %3, i32 0, i32 4
  %5 = getelementptr inbounds [0 x ptr], ptr %4, i64 0, i64 0
  ret ptr %5
}

; Function Attrs: mustprogress nounwind uwtable
define linkonce_odr hidden void @_ZN10ptr_vectorI4exprEC2Ev(ptr noundef nonnull align 8 dereferenceable(8) %0) unnamed_addr #5 comdat align 2 {
  %2 = alloca ptr, align 8
  store ptr %0, ptr %2, align 8, !tbaa !294
  %3 = load ptr, ptr %2, align 8
  call void @_ZN6vectorIP4exprLb0EjEC2Ev(ptr noundef nonnull align 8 dereferenceable(8) %3) #3
  ret void
}

; Function Attrs: inlinehint mustprogress nounwind uwtable
define linkonce_odr hidden noundef ptr @_Z6to_appP3ast(ptr noundef %0) #8 comdat {
  %2 = alloca ptr, align 8
  store ptr %0, ptr %2, align 8, !tbaa !275
  %3 = load ptr, ptr %2, align 8, !tbaa !275
  ret ptr %3
}

; Function Attrs: inlinehint mustprogress nounwind uwtable
define linkonce_odr hidden noundef zeroext i1 @_Z6is_appPK3ast(ptr noundef %0) #8 comdat {
  %2 = alloca ptr, align 8
  store ptr %0, ptr %2, align 8, !tbaa !275
  %3 = load ptr, ptr %2, align 8, !tbaa !275
  %4 = call noundef i32 @_ZNK3ast8get_kindEv(ptr noundef nonnull align 4 dereferenceable(16) %3)
  %5 = icmp eq i32 %4, 0
  ret i1 %5
}

; Function Attrs: mustprogress uwtable
define hidden noundef ptr @_ZN7datalog19mk_array_eq_rewrite7replaceEP4exprS2_S2_(ptr noundef nonnull align 8 dereferenceable(84) %0, ptr noundef %1, ptr noundef %2, ptr noundef %3) #4 align 2 personality ptr @__gxx_personality_v0 {
  %5 = alloca ptr, align 8
  %6 = alloca ptr, align 8
  %7 = alloca ptr, align 8
  %8 = alloca ptr, align 8
  %9 = alloca ptr, align 8
  %10 = alloca ptr, align 8
  %11 = alloca %class.ptr_vector.2, align 8
  %12 = alloca ptr, align 8
  %13 = alloca ptr, align 8
  %14 = alloca ptr, align 8
  %15 = alloca i32, align 4
  %16 = alloca ptr, align 8
  %17 = alloca ptr, align 8
  %18 = alloca ptr, align 8
  store ptr %0, ptr %6, align 8, !tbaa !3
  store ptr %1, ptr %7, align 8, !tbaa !239
  store ptr %2, ptr %8, align 8, !tbaa !239
  store ptr %3, ptr %9, align 8, !tbaa !239
  %19 = load ptr, ptr %6, align 8
  %20 = load ptr, ptr %7, align 8, !tbaa !239
  %21 = load ptr, ptr %9, align 8, !tbaa !239
  %22 = icmp eq ptr %20, %21
  br i1 %22, label %23, label %25

23:                                               ; preds = %4
  %24 = load ptr, ptr %8, align 8, !tbaa !239
  store ptr %24, ptr %5, align 8
  br label %90

25:                                               ; preds = %4
  %26 = load ptr, ptr %7, align 8, !tbaa !239
  %27 = call noundef zeroext i1 @_Z6is_appPK3ast(ptr noundef %26)
  br i1 %27, label %30, label %28

28:                                               ; preds = %25
  %29 = load ptr, ptr %7, align 8, !tbaa !239
  store ptr %29, ptr %5, align 8
  br label %90

30:                                               ; preds = %25
  br label %31

31:                                               ; preds = %30
  call void @llvm.lifetime.start.p0(i64 8, ptr %10) #3
  %32 = load ptr, ptr %7, align 8, !tbaa !239
  %33 = call noundef ptr @_Z6to_appP3ast(ptr noundef %32)
  store ptr %33, ptr %10, align 8, !tbaa !257
  call void @llvm.lifetime.start.p0(i64 8, ptr %11) #3
  call void @_ZN10ptr_vectorI4exprEC2Ev(ptr noundef nonnull align 8 dereferenceable(8) %11) #3
  call void @llvm.lifetime.start.p0(i64 8, ptr %12) #3
  %34 = load ptr, ptr %10, align 8, !tbaa !257
  store ptr %34, ptr %12, align 8, !tbaa !257
  call void @llvm.lifetime.start.p0(i64 8, ptr %13) #3
  %35 = load ptr, ptr %12, align 8, !tbaa !257
  %36 = invoke noundef ptr @_ZNK3app5beginEv(ptr noundef nonnull align 8 dereferenceable(32) %35)
          to label %37 unwind label %46

37:                                               ; preds = %31
  store ptr %36, ptr %13, align 8, !tbaa !248
  call void @llvm.lifetime.start.p0(i64 8, ptr %16) #3
  %38 = load ptr, ptr %12, align 8, !tbaa !257
  %39 = invoke noundef ptr @_ZNK3app3endEv(ptr noundef nonnull align 8 dereferenceable(32) %38)
          to label %40 unwind label %50

40:                                               ; preds = %37
  store ptr %39, ptr %16, align 8, !tbaa !248
  br label %41

41:                                               ; preds = %64, %40
  %42 = load ptr, ptr %13, align 8, !tbaa !248
  %43 = load ptr, ptr %16, align 8, !tbaa !248
  %44 = icmp ne ptr %42, %43
  br i1 %44, label %54, label %45

45:                                               ; preds = %41
  call void @llvm.lifetime.end.p0(i64 8, ptr %16) #3
  call void @llvm.lifetime.end.p0(i64 8, ptr %13) #3
  call void @llvm.lifetime.end.p0(i64 8, ptr %12) #3
  br label %73

46:                                               ; preds = %31
  %47 = landingpad { ptr, i32 }
          cleanup
  %48 = extractvalue { ptr, i32 } %47, 0
  store ptr %48, ptr %14, align 8
  %49 = extractvalue { ptr, i32 } %47, 1
  store i32 %49, ptr %15, align 4
  br label %72

50:                                               ; preds = %37
  %51 = landingpad { ptr, i32 }
          cleanup
  %52 = extractvalue { ptr, i32 } %51, 0
  store ptr %52, ptr %14, align 8
  %53 = extractvalue { ptr, i32 } %51, 1
  store i32 %53, ptr %15, align 4
  br label %71

54:                                               ; preds = %41
  call void @llvm.lifetime.start.p0(i64 8, ptr %17) #3
  %55 = load ptr, ptr %13, align 8, !tbaa !248
  %56 = load ptr, ptr %55, align 8, !tbaa !239
  store ptr %56, ptr %17, align 8, !tbaa !239
  call void @llvm.lifetime.start.p0(i64 8, ptr %18) #3
  %57 = load ptr, ptr %17, align 8, !tbaa !239
  %58 = load ptr, ptr %8, align 8, !tbaa !239
  %59 = load ptr, ptr %9, align 8, !tbaa !239
  %60 = invoke noundef ptr @_ZN7datalog19mk_array_eq_rewrite7replaceEP4exprS2_S2_(ptr noundef nonnull align 8 dereferenceable(84) %19, ptr noundef %57, ptr noundef %58, ptr noundef %59)
          to label %61 unwind label %67

61:                                               ; preds = %54
  store ptr %60, ptr %18, align 8, !tbaa !239
  %62 = invoke noundef nonnull align 8 dereferenceable(8) ptr @_ZN6vectorIP4exprLb0EjE9push_backEOS1_(ptr noundef nonnull align 8 dereferenceable(8) %11, ptr noundef nonnull align 8 dereferenceable(8) %18)
          to label %63 unwind label %67

63:                                               ; preds = %61
  call void @llvm.lifetime.end.p0(i64 8, ptr %18) #3
  call void @llvm.lifetime.end.p0(i64 8, ptr %17) #3
  br label %64

64:                                               ; preds = %63
  %65 = load ptr, ptr %13, align 8, !tbaa !248
  %66 = getelementptr inbounds nuw ptr, ptr %65, i32 1
  store ptr %66, ptr %13, align 8, !tbaa !248
  br label %41

67:                                               ; preds = %61, %54
  %68 = landingpad { ptr, i32 }
          cleanup
  %69 = extractvalue { ptr, i32 } %68, 0
  store ptr %69, ptr %14, align 8
  %70 = extractvalue { ptr, i32 } %68, 1
  store i32 %70, ptr %15, align 4
  call void @llvm.lifetime.end.p0(i64 8, ptr %18) #3
  call void @llvm.lifetime.end.p0(i64 8, ptr %17) #3
  br label %71

71:                                               ; preds = %67, %50
  call void @llvm.lifetime.end.p0(i64 8, ptr %16) #3
  br label %72

72:                                               ; preds = %71, %46
  call void @llvm.lifetime.end.p0(i64 8, ptr %13) #3
  call void @llvm.lifetime.end.p0(i64 8, ptr %12) #3
  br label %89

73:                                               ; preds = %45
  %74 = getelementptr inbounds nuw %"class.datalog::mk_array_eq_rewrite", ptr %19, i32 0, i32 1
  %75 = load ptr, ptr %74, align 8, !tbaa !16
  %76 = load ptr, ptr %10, align 8, !tbaa !257
  %77 = invoke noundef ptr @_ZNK3app8get_declEv(ptr noundef nonnull align 8 dereferenceable(32) %76)
          to label %78 unwind label %85

78:                                               ; preds = %73
  %79 = invoke noundef i32 @_ZNK6vectorIP4exprLb0EjE4sizeEv(ptr noundef nonnull align 8 dereferenceable(8) %11)
          to label %80 unwind label %85

80:                                               ; preds = %78
  %81 = invoke noundef ptr @_ZNK6vectorIP4exprLb0EjE4dataEv(ptr noundef nonnull align 8 dereferenceable(8) %11)
          to label %82 unwind label %85

82:                                               ; preds = %80
  %83 = invoke noundef ptr @_ZN11ast_manager6mk_appEP9func_decljPKP4expr(ptr noundef nonnull align 8 dereferenceable(976) %75, ptr noundef %77, i32 noundef %79, ptr noundef %81)
          to label %84 unwind label %85

84:                                               ; preds = %82
  store ptr %83, ptr %5, align 8
  call void @_ZN6vectorIP4exprLb0EjED2Ev(ptr noundef nonnull align 8 dereferenceable(8) %11) #3
  call void @llvm.lifetime.end.p0(i64 8, ptr %11) #3
  call void @llvm.lifetime.end.p0(i64 8, ptr %10) #3
  br label %90

85:                                               ; preds = %82, %80, %78, %73
  %86 = landingpad { ptr, i32 }
          cleanup
  %87 = extractvalue { ptr, i32 } %86, 0
  store ptr %87, ptr %14, align 8
  %88 = extractvalue { ptr, i32 } %86, 1
  store i32 %88, ptr %15, align 4
  br label %89

89:                                               ; preds = %85, %72
  call void @_ZN6vectorIP4exprLb0EjED2Ev(ptr noundef nonnull align 8 dereferenceable(8) %11) #3
  call void @llvm.lifetime.end.p0(i64 8, ptr %11) #3
  call void @llvm.lifetime.end.p0(i64 8, ptr %10) #3
  br label %92

90:                                               ; preds = %84, %28, %23
  %91 = load ptr, ptr %5, align 8
  ret ptr %91

92:                                               ; preds = %89
  %93 = load ptr, ptr %14, align 8
  %94 = load i32, ptr %15, align 4
  %95 = insertvalue { ptr, i32 } poison, ptr %93, 0
  %96 = insertvalue { ptr, i32 } %95, i32 %94, 1
  resume { ptr, i32 } %96
}